target datalayout = "e-m:e-p270:32:32-p271:32:32-p272:64:64-i64:64-i128:128-f80:128-n8:16:32:64-S128"
target triple = "x86_64-pc-linux-gnu"

%struct.__va_list_tag = type { i32, i32, ptr, ptr }

@.str.48 = private unnamed_addr constant [19 x i8] c"no reason supplied\00", align 1
@.str.49 = private unnamed_addr constant [12 x i8] c"[%s: %s] %s\00", align 1
@.str.50 = private unnamed_addr constant [8 x i8] c"[%s] %s\00", align 1

; Function Attrs: nounwind uwtable
define internal ptr @_setException(ptr noundef %0, ptr noundef %1, ...) #0 {
  %3 = alloca ptr, align 8
  %4 = alloca ptr, align 8
  %5 = alloca ptr, align 8
  %6 = alloca i64, align 8
  %7 = alloca ptr, align 8
  %8 = alloca ptr, align 8
  %9 = alloca ptr, align 8
  %10 = alloca [1 x %struct.__va_list_tag], align 16
  %11 = alloca i32, align 4
  store ptr %0, ptr %4, align 8, !tbaa !14
  store ptr %1, ptr %5, align 8, !tbaa !21
  call void @llvm.lifetime.start.p0(i64 8, ptr %6) #9
  %12 = call i64 @ERR_peek_last_error()
  store i64 %12, ptr %6, align 8, !tbaa !32
  call void @llvm.lifetime.start.p0(i64 8, ptr %7) #9
  call void @llvm.lifetime.start.p0(i64 8, ptr %8) #9
  call void @llvm.lifetime.start.p0(i64 8, ptr %9) #9
  call void @llvm.lifetime.start.p0(i64 24, ptr %10) #9
  %13 = getelementptr inbounds [1 x %struct.__va_list_tag], ptr %10, i64 0, i64 0
  call void @llvm.va_start.p0(ptr %13)
  %14 = load i64, ptr %6, align 8, !tbaa !32
  %15 = icmp ne i64 %14, 0
  br i1 %15, label %28, label %16

16:                                               ; preds = %2
  %17 = load ptr, ptr %5, align 8, !tbaa !21
  %18 = icmp eq ptr %17, null
  br i1 %18, label %19, label %21

19:                                               ; preds = %16
  %20 = load ptr, ptr %4, align 8, !tbaa !14
  call void @PyErr_SetString(ptr noundef %20, ptr noundef @.str.48)
  br label %26

21:                                               ; preds = %16
  %22 = load ptr, ptr %4, align 8, !tbaa !14
  %23 = load ptr, ptr %5, align 8, !tbaa !21
  %24 = getelementptr inbounds [1 x %struct.__va_list_tag], ptr %10, i64 0, i64 0
  %25 = call ptr @PyErr_FormatV(ptr noundef %22, ptr noundef %23, ptr noundef %24)
  br label %26

26:                                               ; preds = %21, %19
  %27 = getelementptr inbounds [1 x %struct.__va_list_tag], ptr %10, i64 0, i64 0
  call void @llvm.va_end.p0(ptr %27)
  store ptr null, ptr %3, align 8
  store i32 1, ptr %11, align 4
  br label %60

28:                                               ; preds = %2
  %29 = getelementptr inbounds [1 x %struct.__va_list_tag], ptr %10, i64 0, i64 0
  call void @llvm.va_end.p0(ptr %29)
  call void @ERR_clear_error()
  %30 = load i64, ptr %6, align 8, !tbaa !32
  %31 = call ptr @ERR_lib_error_string(i64 noundef %30)
  store ptr %31, ptr %7, align 8, !tbaa !21
  %32 = load i64, ptr %6, align 8, !tbaa !32
  %33 = call ptr @ERR_func_error_string(i64 noundef %32)
  store ptr %33, ptr %8, align 8, !tbaa !21
  %34 = load i64, ptr %6, align 8, !tbaa !32
  %35 = call ptr @ERR_reason_error_string(i64 noundef %34)
  store ptr %35, ptr %9, align 8, !tbaa !21
  %36 = load ptr, ptr %7, align 8, !tbaa !21
  %37 = icmp ne ptr %36, null
  br i1 %37, label %38, label %47

38:                                               ; preds = %28
  %39 = load ptr, ptr %8, align 8, !tbaa !21
  %40 = icmp ne ptr %39, null
  br i1 %40, label %41, label %47

41:                                               ; preds = %38
  %42 = load ptr, ptr %4, align 8, !tbaa !14
  %43 = load ptr, ptr %7, align 8, !tbaa !21
  %44 = load ptr, ptr %8, align 8, !tbaa !21
  %45 = load ptr, ptr %9, align 8, !tbaa !21
  %46 = call ptr (ptr, ptr, ...) @PyErr_Format(ptr noundef %42, ptr noundef @.str.49, ptr noundef %43, ptr noundef %44, ptr noundef %45)
  br label %59

47:                                               ; preds = %38, %28
  %48 = load ptr, ptr %7, align 8, !tbaa !21
  %49 = icmp ne ptr %48, null
  br i1 %49, label %50, label %55

50:                                               ; preds = %47
  %51 = load ptr, ptr %4, align 8, !tbaa !14
  %52 = load ptr, ptr %7, align 8, !tbaa !21
  %53 = load ptr, ptr %9, align 8, !tbaa !21
  %54 = call ptr (ptr, ptr, ...) @PyErr_Format(ptr noundef %51, ptr noundef @.str.50, ptr noundef %52, ptr noundef %53)
  br label %58

55:                                               ; preds = %47
  %56 = load ptr, ptr %4, align 8, !tbaa !14
  %57 = load ptr, ptr %9, align 8, !tbaa !21
  call void @PyErr_SetString(ptr noundef %56, ptr noundef %57)
  br label %58

58:                                               ; preds = %55, %50
  br label %59

59:                                               ; preds = %58, %41
  store ptr null, ptr %3, align 8
  store i32 1, ptr %11, align 4
  br label %60

60:                                               ; preds = %59, %26
  call void @llvm.lifetime.end.p0(i64 24, ptr %10) #9
  call void @llvm.lifetime.end.p0(i64 8, ptr %9) #9
  call void @llvm.lifetime.end.p0(i64 8, ptr %8) #9
  call void @llvm.lifetime.end.p0(i64 8, ptr %7) #9
  call void @llvm.lifetime.end.p0(i64 8, ptr %6) #9
  %61 = load ptr, ptr %3, align 8
  ret ptr %61
}