; Function Attrs: nounwind uwtable
define internal void @_setException(ptr noundef %0, ptr noundef %1, ...) unnamed_addr #0 {
  %3 = alloca [1 x %struct.__va_list_tag], align 16
  %4 = tail call i64 @ERR_peek_last_error() #9
  call void @llvm.lifetime.start.p0(i64 24, ptr nonnull %3) #9
  call void @llvm.va_start.p0(ptr nonnull %3)
  %.not = icmp eq i64 %4, 0
  br i1 %.not, label %5, label %11

5:                                                ; preds = %2
  %6 = icmp eq ptr %1, null
  br i1 %6, label %7, label %8

7:                                                ; preds = %5
  call void @PyErr_SetString(ptr noundef %0, ptr noundef nonnull @.str.48) #9
  br label %10

8:                                                ; preds = %5
  %9 = call ptr @PyErr_FormatV(ptr noundef %0, ptr noundef nonnull %1, ptr noundef nonnull %3) #9
  br label %10

10:                                               ; preds = %8, %7
  call void @llvm.va_end.p0(ptr nonnull %3)
  br label %23

11:                                               ; preds = %2
  call void @llvm.va_end.p0(ptr nonnull %3)
  call void @ERR_clear_error() #9
  %12 = call ptr @ERR_lib_error_string(i64 noundef %4) #9
  %13 = call ptr @ERR_func_error_string(i64 noundef %4) #9
  %14 = call ptr @ERR_reason_error_string(i64 noundef %4) #9
  %15 = icmp ne ptr %12, null
  %16 = icmp ne ptr %13, null
  %or.cond = select i1 %15, i1 %16, i1 false
  br i1 %or.cond, label %17, label %19

17:                                               ; preds = %11
  %18 = call ptr (ptr, ptr, ...) @PyErr_Format(ptr noundef %0, ptr noundef nonnull @.str.49, ptr noundef nonnull %12, ptr noundef nonnull %13, ptr noundef %14) #9
  br label %23

19:                                               ; preds = %11
  br i1 %15, label %20, label %22

20:                                               ; preds = %19
  %21 = call ptr (ptr, ptr, ...) @PyErr_Format(ptr noundef %0, ptr noundef nonnull @.str.50, ptr noundef nonnull %12, ptr noundef %14) #9
  br label %23

22:                                               ; preds = %19
  call void @PyErr_SetString(ptr noundef %0, ptr noundef %14) #9
  br label %23

23:                                               ; preds = %17, %22, %20, %10
  call void @llvm.lifetime.end.p0(i64 24, ptr nonnull %3) #9
  ret void
}